Certificate:
    Data:
        Version: 1 (0x0)
        Serial Number: 64207 (0xfacf)
    Signature Algorithm: md5WithRSAEncryption
        Issuer: C=zh, ST=zhejiang, L=hangzhou, O=www.kunion.com.cn, OU=www.kunion.com.cn, CN=www.kunion.com.cn/emailAddress=ca@www.kunion.com.cn
        Validity
            Not Before: Aug 18 14:07:10 2015 GMT
            Not After : Aug 15 14:07:10 2025 GMT
        Subject: C=zh, ST=zhejiang, O=www.kunion.com.cn, OU=www.kunion.com.cn, L=hangzhou, CN=www.kunion.com.cn/emailAddress=client@www.kunion.com.cn
        Subject Public Key Info:
            Public Key Algorithm: rsaEncryption
                Public-Key: (1024 bit)
                Modulus:
                    00:cd:4b:1b:67:9d:09:c8:ae:dc:78:fa:b9:6a:6c:
                    8e:5e:4b:3b:70:fe:69:c4:63:a0:3a:1d:0d:ee:14:
                    9f:3c:fb:3d:63:43:6a:12:1c:06:a6:ed:a8:00:d3:
                    ad:0f:b2:99:41:5d:03:64:87:11:8a:01:23:35:fc:
                    1d:a3:d1:72:5b:94:1c:8b:2f:a5:bf:78:ab:85:36:
                    a0:09:85:b2:b5:56:51:8c:92:ff:c0:96:2d:fe:b1:
                    a3:9c:59:61:78:fe:30:6b:2c:bf:40:ff:44:12:e1:
                    74:e3:32:24:c2:f0:78:a4:2b:96:24:b2:f6:99:43:
                    81:bf:a1:95:3b:20:30:0a:15
                Exponent: 65537 (0x10001)
    Signature Algorithm: md5WithRSAEncryption
         1f:3a:99:26:61:b3:5e:11:ff:7a:be:dd:80:60:0c:51:96:ba:
         4c:0e:aa:97:cf:9f:a9:3c:8d:f8:eb:d5:1d:90:31:e5:f6:53:
         ab:df:55:de:d1:43:84:e4:e9:df:01:42:0c:ea:77:cc:68:60:
         f9:4d:a4:16:0f:65:4e:65:29:25:4f:e1:86:7f:97:f0:2f:e0:
         a3:1c:27:a0:c6:30:d5:c4:9e:30:3a:8f:e1:06:ae:e1:06:8b:
         08:ac:09:86:62:b7:dd:4a:f9:2b:f2:1a:0c:b4:c9:cb:ff:d3:
         0e:a4:42:9e:db:2c:14:b2:9c:c1:a1:f0:09:c2:2b:ec:97:a4:
         8d:8b
-----BEGIN CERTIFICATE-----
MIICzzCCAjgCAwD6zzANBgkqhkiG9w0BAQQFADCBrDELMAkGA1UEBhMCemgxETAP
BgNVBAgMCHpoZWppYW5nMREwDwYDVQQHDAhoYW5nemhvdTEaMBgGA1UECgwRd3d3
Lmt1bmlvbi5jb20uY24xGjAYBgNVBAsMEXd3dy5rdW5pb24uY29tLmNuMRowGAYD
VQQDDBF3d3cua3VuaW9uLmNvbS5jbjEjMCEGCSqGSIb3DQEJARYUY2FAd3d3Lmt1
bmlvbi5jb20uY24wHhcNMTUwODE4MTQwNzEwWhcNMjUwODE1MTQwNzEwWjCBsDEL
MAkGA1UEBhMCemgxETAPBgNVBAgMCHpoZWppYW5nMRowGAYDVQQKDBF3d3cua3Vu
aW9uLmNvbS5jbjEaMBgGA1UECwwRd3d3Lmt1bmlvbi5jb20uY24xETAPBgNVBAcM
CGhhbmd6aG91MRowGAYDVQQDDBF3d3cua3VuaW9uLmNvbS5jbjEnMCUGCSqGSIb3
DQEJARYYY2xpZW50QHd3dy5rdW5pb24uY29tLmNuMIGfMA0GCSqGSIb3DQEBAQUA
A4GNADCBiQKBgQDNSxtnnQnIrtx4+rlqbI5eSztw/mnEY6A6HQ3uFJ88+z1jQ2oS
HAam7agA060PsplBXQNkhxGKASM1/B2j0XJblByLL6W/eKuFNqAJhbK1VlGMkv/A
li3+saOcWWF4/jBrLL9A/0QS4XTjMiTC8HikK5YksvaZQ4G/oZU7IDAKFQIDAQAB
MA0GCSqGSIb3DQEBBAUAA4GBAB86mSZhs14R/3q+3YBgDFGWukwOqpfPn6k8jfjr
1R2QMeX2U6vfVd7RQ4Tk6d8BQgzqd8xoYPlNpBYPZU5lKSVP4YZ/l/Av4KMcJ6DG
MNXEnjA6j+EGruEGiwisCYZit91K+SvyGgy0ycv/0w6kQp7bLBSynMGh8AnCK+yX
pI2L
-----END CERTIFICATE-----
